Certificate:
    Data:
        Version: 3 (0x2)
        Serial Number:
            30:da:94:fc:3f:b4:0a:ac:f1:22:77:4c:6f:9e:ef:62
        Signature Algorithm: sha256WithRSAEncryption
        Issuer: CN=SD-WAN Testbed CA
        Validity
            Not Before: Mar  6 07:54:13 2026 GMT
            Not After : Jun  8 07:54:13 2028 GMT
        Subject: CN=conf-server
        Subject Public Key Info:
            Public Key Algorithm: rsaEncryption
                Public-Key: (2048 bit)
                Modulus:
                    00:93:cb:11:92:4f:f5:7a:37:9a:9b:42:0a:a7:02:
                    2c:90:e4:8b:31:6f:f1:bb:1c:42:7b:9b:1e:50:36:
                    5e:49:f6:04:62:00:8b:98:53:09:f9:eb:76:b1:a3:
                    dd:5d:02:2d:b0:c3:c2:c5:48:9a:7e:59:55:65:1f:
                    e0:6d:34:cf:d5:6a:ac:bc:24:5b:87:33:dc:9a:42:
                    65:a9:e9:50:19:f8:6b:bb:e1:c6:63:94:71:71:30:
                    00:b1:d0:0d:e5:b9:4a:81:92:1d:92:c6:19:0f:13:
                    e5:64:24:c8:aa:4e:58:17:6d:af:d9:cf:44:04:5c:
                    96:83:53:95:96:86:33:78:ec:38:e9:17:86:ce:24:
                    ad:ba:a3:11:3e:f0:81:04:39:3b:ba:e6:a8:8e:5a:
                    41:34:fa:ee:e1:d2:1a:9a:08:63:29:2d:0c:91:f2:
                    20:6e:79:9d:6b:73:fa:4c:07:5f:bf:9c:00:f8:31:
                    e1:0f:da:1b:fe:f2:7d:a2:91:2b:09:9c:07:0e:6a:
                    47:37:ef:8f:7b:f8:f6:6f:89:ea:3b:0c:fc:89:56:
                    98:f3:41:09:d2:75:a9:f1:0c:3c:1b:0c:b6:9a:64:
                    bc:30:1d:8c:32:e4:4c:e9:a7:0e:84:b1:18:4e:94:
                    23:69:ab:62:71:39:5f:02:d5:c5:27:f6:76:35:8b:
                    e4:91
                Exponent: 65537 (0x10001)
        X509v3 extensions:
            X509v3 Basic Constraints: 
                CA:FALSE
            X509v3 Subject Key Identifier: 
                89:2E:14:4F:57:1B:E8:29:83:14:1A:19:F4:83:AA:42:04:BD:A2:9D
            X509v3 Authority Key Identifier: 
                keyid:78:0A:16:8D:C1:F1:C7:CC:2B:2C:39:34:D5:51:47:B1:E8:83:D9:5D
                DirName:/CN=SD-WAN Testbed CA
                serial:04:A2:44:06:69:0D:54:68:DD:28:A4:55:52:58:78:09:E7:B4:7C:69
            X509v3 Extended Key Usage: 
                TLS Web Server Authentication
            X509v3 Key Usage: 
                Digital Signature, Key Encipherment
            X509v3 Subject Alternative Name: 
                IP Address:172.16.0.12, DNS:conf-server
    Signature Algorithm: sha256WithRSAEncryption
    Signature Value:
        40:81:d7:3e:cb:a8:d9:8a:cd:14:b8:cc:93:59:4e:a7:63:0b:
        b0:da:97:f7:1d:13:45:70:c3:ad:7c:b2:02:75:7e:77:0d:77:
        be:aa:6e:20:94:33:8c:2e:7c:08:e9:93:d5:05:27:43:c2:85:
        19:15:f8:04:ce:61:d7:56:0c:06:97:ec:cf:9f:4f:53:61:6c:
        64:c6:2a:90:92:73:a6:0d:f6:d0:85:f8:23:2b:dc:ed:9b:ba:
        81:0c:03:c1:c3:5c:17:f7:89:c3:b1:1b:36:c9:f5:fa:26:39:
        9c:dd:12:b5:bd:97:40:e3:28:ac:01:0c:1e:0e:6c:fa:a4:91:
        32:8c:51:27:6a:ae:87:06:4e:f4:c5:a8:90:5f:04:21:28:6c:
        65:21:d6:e1:10:36:d5:89:fc:7e:fb:8a:31:59:43:91:52:d2:
        6d:43:29:7a:e5:53:a7:f7:3f:6f:0b:c9:d3:f1:b7:ce:52:85:
        8a:83:4d:1c:42:d2:ee:58:d7:b1:ac:f6:b4:e2:3d:3b:0d:b7:
        f8:4a:0a:95:1d:b3:5a:57:47:f7:4a:75:a9:e5:5d:10:90:e4:
        ad:ab:47:78:aa:82:f3:d4:b5:80:be:91:22:83:84:6b:99:f7:
        6c:2b:47:50:11:b3:97:a9:31:41:69:05:9d:3b:4f:aa:95:c0:
        48:05:8a:85
-----BEGIN CERTIFICATE-----
MIIDgzCCAmugAwIBAgIQMNqU/D+0CqzxIndMb57vYjANBgkqhkiG9w0BAQsFADAc
MRowGAYDVQQDDBFTRC1XQU4gVGVzdGJlZCBDQTAeFw0yNjAzMDYwNzU0MTNaFw0y
ODA2MDgwNzU0MTNaMBYxFDASBgNVBAMMC2NvbmYtc2VydmVyMIIBIjANBgkqhkiG
9w0BAQEFAAOCAQ8AMIIBCgKCAQEAk8sRkk/1ejeam0IKpwIskOSLMW/xuxxCe5se
UDZeSfYEYgCLmFMJ+et2saPdXQItsMPCxUiafllVZR/gbTTP1WqsvCRbhzPcmkJl
qelQGfhru+HGY5RxcTAAsdAN5blKgZIdksYZDxPlZCTIqk5YF22v2c9EBFyWg1OV
loYzeOw46ReGziStuqMRPvCBBDk7uuaojlpBNPru4dIamghjKS0MkfIgbnmda3P6
TAdfv5wA+DHhD9ob/vJ9opErCZwHDmpHN++Pe/j2b4nqOwz8iVaY80EJ0nWp8Qw8
Gwy2mmS8MB2MMuRM6acOhLEYTpQjaaticTlfAtXFJ/Z2NYvkkQIDAQABo4HGMIHD
MAkGA1UdEwQCMAAwHQYDVR0OBBYEFIkuFE9XG+gpgxQaGfSDqkIEvaKdMFcGA1Ud
IwRQME6AFHgKFo3B8cfMKyw5NNVRR7Hog9ldoSCkHjAcMRowGAYDVQQDDBFTRC1X
QU4gVGVzdGJlZCBDQYIUBKJEBmkNVGjdKKRVUlh4Cee0fGkwEwYDVR0lBAwwCgYI
KwYBBQUHAwEwCwYDVR0PBAQDAgWgMBwGA1UdEQQVMBOHBKwQAAyCC2NvbmYtc2Vy
dmVyMA0GCSqGSIb3DQEBCwUAA4IBAQBAgdc+y6jZis0UuMyTWU6nYwuw2pf3HRNF
cMOtfLICdX53DXe+qm4glDOMLnwI6ZPVBSdDwoUZFfgEzmHXVgwGl+zPn09TYWxk
xiqQknOmDfbQhfgjK9ztm7qBDAPBw1wX94nDsRs2yfX6Jjmc3RK1vZdA4yisAQwe
Dmz6pJEyjFEnaq6HBk70xaiQXwQhKGxlIdbhEDbVifx++4oxWUORUtJtQyl65VOn
9z9vC8nT8bfOUoWKg00cQtLuWNexrPa04j07Dbf4SgqVHbNaV0f3SnWp5V0QkOSt
q0d4qoLz1LWAvpEig4RrmfdsK0dQEbOXqTFBaQWdO0+qlcBIBYqF
-----END CERTIFICATE-----
