Certificate:
    Data:
        Version: 3 (0x2)
        Serial Number:
            cd:a2:79:0a:05:1b:30:59:91:b5:a9:78:8e:4c:63:0d
        Signature Algorithm: sha256WithRSAEncryption
        Issuer: CN=SD-WAN Testbed CA
        Validity
            Not Before: Mar  6 07:54:23 2026 GMT
            Not After : Jun  8 07:54:23 2028 GMT
        Subject: CN=hub-strongswan
        Subject Public Key Info:
            Public Key Algorithm: rsaEncryption
                Public-Key: (2048 bit)
                Modulus:
                    00:bd:24:14:16:f4:08:95:9a:e3:b3:d1:68:ab:7f:
                    6a:62:f2:09:7e:2d:68:98:61:c2:f6:f1:b4:0b:41:
                    3f:d6:25:c8:1e:7f:d5:ce:1b:2c:bf:14:ba:e4:20:
                    c3:91:bb:6e:58:d8:06:8c:a8:fa:60:25:c7:9f:81:
                    21:47:7e:48:16:2a:3b:a8:fd:32:93:e7:d7:99:ff:
                    b9:1c:ca:3d:0f:9e:e7:63:15:c6:77:47:0a:f7:37:
                    12:ba:46:a1:95:e2:41:b9:b1:d7:8f:78:9a:f8:2e:
                    54:da:a4:5d:fe:e3:1c:51:7a:d4:90:3d:9d:86:56:
                    3b:68:47:c0:d0:71:e7:47:a9:b4:c9:2b:ec:5a:c8:
                    75:b7:c1:a6:6d:0c:46:63:72:75:03:97:a1:68:e0:
                    22:08:ff:d6:7f:20:1c:0a:4a:c0:6b:f6:0e:04:f1:
                    b7:7e:d3:9c:3b:db:8b:cd:39:3c:71:4e:05:3a:ec:
                    43:d3:6b:2b:6b:b2:d5:99:11:cc:1d:d4:34:04:df:
                    20:0c:77:f5:1e:ca:b9:e1:b8:86:03:72:13:8f:f3:
                    ea:96:b9:49:44:13:a2:8a:54:2e:b7:4d:cc:8f:1f:
                    35:db:bc:05:1e:7d:2e:13:87:b2:17:71:b4:13:f1:
                    3b:7b:51:6d:a6:44:6b:18:3e:25:33:e7:64:2b:56:
                    06:e1
                Exponent: 65537 (0x10001)
        X509v3 extensions:
            X509v3 Basic Constraints: 
                CA:FALSE
            X509v3 Subject Key Identifier: 
                7A:6C:7D:0B:7B:35:B8:2F:26:F2:55:12:92:FE:C6:85:98:66:E3:DE
            X509v3 Authority Key Identifier: 
                keyid:78:0A:16:8D:C1:F1:C7:CC:2B:2C:39:34:D5:51:47:B1:E8:83:D9:5D
                DirName:/CN=SD-WAN Testbed CA
                serial:04:A2:44:06:69:0D:54:68:DD:28:A4:55:52:58:78:09:E7:B4:7C:69
            X509v3 Extended Key Usage: 
                TLS Web Server Authentication
            X509v3 Key Usage: 
                Digital Signature, Key Encipherment
            X509v3 Subject Alternative Name: 
                DNS:hub.sdwan.testbed
    Signature Algorithm: sha256WithRSAEncryption
    Signature Value:
        7b:8a:e8:54:2e:62:dc:a8:1c:28:ef:93:2d:69:f2:1d:a4:94:
        8a:ce:dd:dd:80:87:59:55:85:db:95:0b:bd:3a:62:c1:e6:f7:
        05:1c:92:b9:03:bd:4a:ec:46:09:5d:d7:c3:35:65:2c:e2:67:
        c0:7f:c3:17:63:d0:d8:60:9d:8f:aa:3f:70:a5:9d:e9:ee:e6:
        25:6a:a4:4e:ff:35:a6:65:4f:23:1c:af:a2:27:66:2e:54:a4:
        27:ec:63:8f:d3:f7:8e:e4:98:aa:f4:7e:27:dd:44:a2:bc:43:
        52:6c:d1:2b:7b:bc:4d:37:a0:cd:aa:13:b3:e5:b5:93:6c:dd:
        92:14:74:49:fa:ba:55:ec:65:aa:87:ef:90:45:b9:0a:d8:37:
        77:1e:c5:0e:6b:2b:00:8e:e8:63:a5:55:02:61:69:1a:3d:2c:
        b5:de:e9:f2:71:23:60:d1:9a:dd:cb:86:2e:c4:1b:61:ba:4b:
        0f:7c:16:fc:3a:a7:57:d6:a1:81:f8:ea:2b:88:f2:4a:cd:12:
        30:3e:68:54:1d:20:e6:69:6d:47:60:75:8b:3d:36:eb:82:05:
        d8:42:6d:66:6d:8b:a7:59:6e:39:e1:67:ae:c2:92:31:60:0e:
        32:e9:eb:21:42:26:7b:39:af:9c:3e:3e:56:70:33:65:74:3f:
        c7:30:02:87
-----BEGIN CERTIFICATE-----
MIIDhzCCAm+gAwIBAgIRAM2ieQoFGzBZkbWpeI5MYw0wDQYJKoZIhvcNAQELBQAw
HDEaMBgGA1UEAwwRU0QtV0FOIFRlc3RiZWQgQ0EwHhcNMjYwMzA2MDc1NDIzWhcN
MjgwNjA4MDc1NDIzWjAZMRcwFQYDVQQDDA5odWItc3Ryb25nc3dhbjCCASIwDQYJ
KoZIhvcNAQEBBQADggEPADCCAQoCggEBAL0kFBb0CJWa47PRaKt/amLyCX4taJhh
wvbxtAtBP9YlyB5/1c4bLL8UuuQgw5G7bljYBoyo+mAlx5+BIUd+SBYqO6j9MpPn
15n/uRzKPQ+e52MVxndHCvc3ErpGoZXiQbmx1494mvguVNqkXf7jHFF61JA9nYZW
O2hHwNBx50eptMkr7FrIdbfBpm0MRmNydQOXoWjgIgj/1n8gHApKwGv2DgTxt37T
nDvbi805PHFOBTrsQ9NrK2uy1ZkRzB3UNATfIAx39R7KueG4hgNyE4/z6pa5SUQT
oopULrdNzI8fNdu8BR59LhOHshdxtBPxO3tRbaZEaxg+JTPnZCtWBuECAwEAAaOB
xjCBwzAJBgNVHRMEAjAAMB0GA1UdDgQWBBR6bH0LezW4LybyVRKS/saFmGbj3jBX
BgNVHSMEUDBOgBR4ChaNwfHHzCssOTTVUUex6IPZXaEgpB4wHDEaMBgGA1UEAwwR
U0QtV0FOIFRlc3RiZWQgQ0GCFASiRAZpDVRo3SikVVJYeAnntHxpMBMGA1UdJQQM
MAoGCCsGAQUFBwMBMAsGA1UdDwQEAwIFoDAcBgNVHREEFTATghFodWIuc2R3YW4u
dGVzdGJlZDANBgkqhkiG9w0BAQsFAAOCAQEAe4roVC5i3KgcKO+TLWnyHaSUis7d
3YCHWVWF25ULvTpiweb3BRySuQO9SuxGCV3XwzVlLOJnwH/DF2PQ2GCdj6o/cKWd
6e7mJWqkTv81pmVPIxyvoidmLlSkJ+xjj9P3juSYqvR+J91EorxDUmzRK3u8TTeg
zaoTs+W1k2zdkhR0Sfq6VexlqofvkEW5Ctg3dx7FDmsrAI7oY6VVAmFpGj0std7p
8nEjYNGa3cuGLsQbYbpLD3wW/DqnV9ahgfjqK4jySs0SMD5oVB0g5mltR2B1iz02
64IF2EJtZm2Lp1luOeFnrsKSMWAOMunrIUImezmvnD4+VnAzZXQ/xzAChw==
-----END CERTIFICATE-----
