Certificate:
    Data:
        Version: 3 (0x2)
        Serial Number:
            d3:f0:a5:f0:0c:ad:f0:3f:f8:bc:c8:42:94:bc:64:ce
        Signature Algorithm: sha256WithRSAEncryption
        Issuer: CN=SD-WAN Testbed CA
        Validity
            Not Before: Mar  6 07:54:18 2026 GMT
            Not After : Jun  8 07:54:18 2028 GMT
        Subject: CN=dut-strongswan
        Subject Public Key Info:
            Public Key Algorithm: rsaEncryption
                Public-Key: (2048 bit)
                Modulus:
                    00:b3:e7:df:78:f0:bb:8e:dd:00:82:b6:28:80:0b:
                    39:1f:6e:e0:16:ba:27:d3:ea:39:4b:d7:85:a6:fe:
                    ee:3f:c7:c7:99:a6:ee:fe:9f:26:c7:d6:a8:f7:66:
                    8f:7f:42:1d:3b:01:4b:35:8d:01:8e:27:43:9c:e8:
                    76:2a:e3:3e:6a:70:4c:f9:d3:45:cb:ab:ab:41:f3:
                    0e:58:fd:8f:98:a6:fd:30:d5:60:91:cf:3d:5b:0c:
                    5f:c5:ef:49:a7:c2:66:ee:ec:8b:28:9b:de:aa:29:
                    6a:6d:76:f7:6d:c2:96:44:8c:01:f2:2d:a9:dc:48:
                    71:f6:d7:80:2b:35:1e:96:1b:fa:7a:be:db:32:ae:
                    98:27:93:7d:ff:e1:00:07:15:1e:a8:e0:4b:a2:3a:
                    81:67:00:31:93:dc:ff:9b:ab:89:cb:29:66:b3:cc:
                    31:17:4a:04:55:1f:ad:57:29:4a:a3:c0:a1:e0:b1:
                    97:c7:77:db:7f:cc:6a:5c:e3:4c:9c:9f:99:af:36:
                    df:cb:ac:2c:0d:15:96:3b:15:24:62:6e:27:2a:2e:
                    f4:1b:53:48:12:ce:f2:57:e7:5e:96:4b:37:af:0d:
                    32:54:75:49:08:6e:b7:00:83:d1:77:c9:6f:86:0c:
                    30:2d:e9:f5:5f:f2:7d:dd:24:6e:77:72:16:c9:8c:
                    5c:97
                Exponent: 65537 (0x10001)
        X509v3 extensions:
            X509v3 Basic Constraints: 
                CA:FALSE
            X509v3 Subject Key Identifier: 
                EA:A7:51:47:D2:D2:68:5E:FE:78:1E:30:36:65:29:8A:36:23:08:F2
            X509v3 Authority Key Identifier: 
                keyid:78:0A:16:8D:C1:F1:C7:CC:2B:2C:39:34:D5:51:47:B1:E8:83:D9:5D
                DirName:/CN=SD-WAN Testbed CA
                serial:04:A2:44:06:69:0D:54:68:DD:28:A4:55:52:58:78:09:E7:B4:7C:69
            X509v3 Extended Key Usage: 
                TLS Web Server Authentication
            X509v3 Key Usage: 
                Digital Signature, Key Encipherment
            X509v3 Subject Alternative Name: 
                DNS:dut.sdwan.testbed
    Signature Algorithm: sha256WithRSAEncryption
    Signature Value:
        97:a6:cf:b8:9e:0b:d3:02:95:a6:2a:d5:6b:a6:d6:0e:2f:b1:
        ce:48:cf:1a:c3:5f:28:a7:44:03:28:31:ab:53:fb:ab:d3:fc:
        60:11:b5:73:bd:fa:b3:05:ed:ef:da:a7:b5:3c:6a:24:df:fa:
        79:89:0c:85:ba:39:56:55:7c:3b:2b:77:17:79:fa:0c:8c:89:
        e8:60:31:90:15:b9:d3:a1:74:9a:35:79:c0:21:3d:a4:c7:55:
        a9:2c:2f:0e:66:e7:f4:13:cc:94:5c:dc:ae:4b:ee:8e:1e:18:
        e7:43:62:3e:20:f4:e3:41:61:d4:99:dd:bf:5b:1b:f6:18:45:
        b8:2a:00:d7:dd:c6:88:38:b0:e5:c7:df:5a:0e:aa:b4:7e:79:
        0e:7d:38:46:0e:b0:ef:71:ab:b6:6b:b7:45:6f:dd:8c:48:bb:
        b2:97:d7:28:7a:82:77:76:f2:c7:be:be:f4:15:27:c7:28:d5:
        0d:a0:8f:e9:c8:51:52:dd:03:46:d8:06:a9:04:39:65:f9:a8:
        6e:66:93:1a:e4:ae:7e:34:48:a4:77:ab:07:1f:25:ad:a5:e1:
        00:b3:ac:ae:15:fa:55:c3:f1:12:59:a8:c1:a9:8c:ca:bf:19:
        a9:10:90:70:92:78:6f:cc:f4:26:ab:33:e9:6e:ec:63:cd:c0:
        04:e1:7a:00
-----BEGIN CERTIFICATE-----
MIIDhzCCAm+gAwIBAgIRANPwpfAMrfA/+LzIQpS8ZM4wDQYJKoZIhvcNAQELBQAw
HDEaMBgGA1UEAwwRU0QtV0FOIFRlc3RiZWQgQ0EwHhcNMjYwMzA2MDc1NDE4WhcN
MjgwNjA4MDc1NDE4WjAZMRcwFQYDVQQDDA5kdXQtc3Ryb25nc3dhbjCCASIwDQYJ
KoZIhvcNAQEBBQADggEPADCCAQoCggEBALPn33jwu47dAIK2KIALOR9u4Ba6J9Pq
OUvXhab+7j/Hx5mm7v6fJsfWqPdmj39CHTsBSzWNAY4nQ5zodirjPmpwTPnTRcur
q0HzDlj9j5im/TDVYJHPPVsMX8XvSafCZu7siyib3qopam12923ClkSMAfItqdxI
cfbXgCs1HpYb+nq+2zKumCeTff/hAAcVHqjgS6I6gWcAMZPc/5uricspZrPMMRdK
BFUfrVcpSqPAoeCxl8d323/MalzjTJyfma8238usLA0VljsVJGJuJyou9BtTSBLO
8lfnXpZLN68NMlR1SQhutwCD0XfJb4YMMC3p9V/yfd0kbndyFsmMXJcCAwEAAaOB
xjCBwzAJBgNVHRMEAjAAMB0GA1UdDgQWBBTqp1FH0tJoXv54HjA2ZSmKNiMI8jBX
BgNVHSMEUDBOgBR4ChaNwfHHzCssOTTVUUex6IPZXaEgpB4wHDEaMBgGA1UEAwwR
U0QtV0FOIFRlc3RiZWQgQ0GCFASiRAZpDVRo3SikVVJYeAnntHxpMBMGA1UdJQQM
MAoGCCsGAQUFBwMBMAsGA1UdDwQEAwIFoDAcBgNVHREEFTATghFkdXQuc2R3YW4u
dGVzdGJlZDANBgkqhkiG9w0BAQsFAAOCAQEAl6bPuJ4L0wKVpirVa6bWDi+xzkjP
GsNfKKdEAygxq1P7q9P8YBG1c736swXt79qntTxqJN/6eYkMhbo5VlV8Oyt3F3n6
DIyJ6GAxkBW506F0mjV5wCE9pMdVqSwvDmbn9BPMlFzcrkvujh4Y50NiPiD040Fh
1Jndv1sb9hhFuCoA193GiDiw5cffWg6qtH55Dn04Rg6w73Grtmu3RW/djEi7spfX
KHqCd3byx76+9BUnxyjVDaCP6chRUt0DRtgGqQQ5ZfmobmaTGuSufjRIpHerBx8l
raXhALOsrhX6VcPxElmowamMyr8ZqRCQcJJ4b8z0Jqsz6W7sY83ABOF6AA==
-----END CERTIFICATE-----
