Certificate:
    Data:
        Version: 3 (0x2)
        Serial Number:
            dd:9b:5c:21:23:cd:05:04:c8:ae:bc:a1:ab:5f:e5:15
        Signature Algorithm: sha256WithRSAEncryption
        Issuer: CN=SD-WAN Testbed CA
        Validity
            Not Before: Mar  6 08:02:39 2026 GMT
            Not After : Jun  8 08:02:39 2028 GMT
        Subject: CN=streaming-server
        Subject Public Key Info:
            Public Key Algorithm: rsaEncryption
                Public-Key: (2048 bit)
                Modulus:
                    00:93:95:50:3e:92:8d:0a:0b:6c:29:9d:97:16:87:
                    2b:5d:20:04:85:d4:9c:cf:c7:48:53:83:4e:39:a5:
                    f9:06:89:7f:88:8b:43:10:76:37:e2:d4:4a:42:3a:
                    7d:c0:b8:aa:1e:06:d5:63:c3:76:64:b9:13:6f:18:
                    7c:b3:65:f0:c7:53:a5:fa:ab:92:b0:62:92:97:c8:
                    07:bd:f4:6c:2c:5b:09:7f:c0:f0:c8:ae:df:79:0e:
                    02:ed:50:fb:0b:13:77:a1:45:92:2e:ef:b0:87:cd:
                    a3:6b:42:bc:c3:ce:10:02:4e:d9:9d:ee:d3:6c:02:
                    d7:9e:28:59:77:76:87:c9:e9:8e:1c:3d:b2:7e:00:
                    48:05:76:f9:3b:da:a2:a1:f5:48:d1:eb:19:5d:7d:
                    de:60:ac:ea:ee:fa:86:11:bd:8e:c0:d9:72:b6:51:
                    45:6e:da:54:e8:9b:1a:f0:ae:d4:b6:ea:c0:0f:34:
                    30:7f:b4:1a:ce:46:b2:f7:86:b8:f1:dd:31:88:7a:
                    63:0d:e4:a3:e8:07:81:f8:67:1c:03:e0:81:75:83:
                    83:79:29:8a:4c:9d:26:44:fd:d4:35:7d:37:cc:cc:
                    09:53:81:d9:4c:87:6f:8a:10:e7:25:53:55:03:65:
                    22:7a:fc:91:fb:f5:1d:0d:1e:15:42:80:ca:70:fa:
                    17:2b
                Exponent: 65537 (0x10001)
        X509v3 extensions:
            X509v3 Basic Constraints: 
                CA:FALSE
            X509v3 Subject Key Identifier: 
                B9:43:FE:7A:6C:9A:8D:D7:17:64:8A:14:8C:CC:4A:C6:F5:E2:EA:3D
            X509v3 Authority Key Identifier: 
                keyid:78:0A:16:8D:C1:F1:C7:CC:2B:2C:39:34:D5:51:47:B1:E8:83:D9:5D
                DirName:/CN=SD-WAN Testbed CA
                serial:04:A2:44:06:69:0D:54:68:DD:28:A4:55:52:58:78:09:E7:B4:7C:69
            X509v3 Extended Key Usage: 
                TLS Web Server Authentication
            X509v3 Key Usage: 
                Digital Signature, Key Encipherment
            X509v3 Subject Alternative Name: 
                IP Address:172.16.0.11, DNS:streaming-server
    Signature Algorithm: sha256WithRSAEncryption
    Signature Value:
        37:8a:4e:01:f3:94:9c:0f:15:3d:e0:07:5c:26:5d:0d:07:17:
        8e:0d:59:93:04:1e:5f:a4:82:06:7e:2b:ee:d4:ea:5f:6f:cd:
        f4:69:7f:66:c9:4b:30:8c:44:bc:69:5c:d3:0c:c7:b8:91:ea:
        e8:d5:b3:80:99:ed:23:80:5f:87:65:f1:d8:76:13:80:73:ab:
        58:11:75:e0:27:cc:c5:55:66:d9:92:e7:86:27:fb:67:72:b4:
        e1:8f:d0:b1:44:c6:46:c3:66:d2:7a:df:72:8f:14:bc:75:92:
        56:9a:e9:7b:06:74:fe:3c:1b:0d:b6:a1:93:3f:33:cf:bf:0d:
        3f:15:9e:ab:85:fc:be:fa:12:8a:b2:8e:ec:d6:98:d2:e5:ea:
        89:56:25:98:40:b3:94:d5:65:96:a2:a2:22:10:7a:51:84:c0:
        a4:34:ca:1b:02:97:0e:46:dc:44:bb:8b:64:5b:5b:9e:4c:78:
        b4:94:51:9c:09:49:45:a3:dc:6d:ad:48:01:71:8c:ac:2b:98:
        8b:e0:18:27:d7:0d:a1:4c:c1:6a:89:b0:22:65:da:f3:15:2a:
        08:fe:cd:ab:c6:bb:0e:49:af:a1:6d:5e:db:f3:3b:21:37:ae:
        5e:58:93:83:54:46:9a:be:6a:d8:7a:0d:9c:ac:f2:d6:48:ac:
        2a:1d:68:e6
-----BEGIN CERTIFICATE-----
MIIDjjCCAnagAwIBAgIRAN2bXCEjzQUEyK68oatf5RUwDQYJKoZIhvcNAQELBQAw
HDEaMBgGA1UEAwwRU0QtV0FOIFRlc3RiZWQgQ0EwHhcNMjYwMzA2MDgwMjM5WhcN
MjgwNjA4MDgwMjM5WjAbMRkwFwYDVQQDDBBzdHJlYW1pbmctc2VydmVyMIIBIjAN
BgkqhkiG9w0BAQEFAAOCAQ8AMIIBCgKCAQEAk5VQPpKNCgtsKZ2XFocrXSAEhdSc
z8dIU4NOOaX5Bol/iItDEHY34tRKQjp9wLiqHgbVY8N2ZLkTbxh8s2Xwx1Ol+quS
sGKSl8gHvfRsLFsJf8DwyK7feQ4C7VD7CxN3oUWSLu+wh82ja0K8w84QAk7Zne7T
bALXnihZd3aHyemOHD2yfgBIBXb5O9qiofVI0esZXX3eYKzq7vqGEb2OwNlytlFF
btpU6Jsa8K7UturADzQwf7Qazkay94a48d0xiHpjDeSj6AeB+GccA+CBdYODeSmK
TJ0mRP3UNX03zMwJU4HZTIdvihDnJVNVA2UievyR+/UdDR4VQoDKcPoXKwIDAQAB
o4HLMIHIMAkGA1UdEwQCMAAwHQYDVR0OBBYEFLlD/npsmo3XF2SKFIzMSsb14uo9
MFcGA1UdIwRQME6AFHgKFo3B8cfMKyw5NNVRR7Hog9ldoSCkHjAcMRowGAYDVQQD
DBFTRC1XQU4gVGVzdGJlZCBDQYIUBKJEBmkNVGjdKKRVUlh4Cee0fGkwEwYDVR0l
BAwwCgYIKwYBBQUHAwEwCwYDVR0PBAQDAgWgMCEGA1UdEQQaMBiHBKwQAAuCEHN0
cmVhbWluZy1zZXJ2ZXIwDQYJKoZIhvcNAQELBQADggEBADeKTgHzlJwPFT3gB1wm
XQ0HF44NWZMEHl+kggZ+K+7U6l9vzfRpf2bJSzCMRLxpXNMMx7iR6ujVs4CZ7SOA
X4dl8dh2E4Bzq1gRdeAnzMVVZtmS54Yn+2dytOGP0LFExkbDZtJ633KPFLx1klaa
6XsGdP48Gw22oZM/M8+/DT8VnquF/L76EoqyjuzWmNLl6olWJZhAs5TVZZaioiIQ
elGEwKQ0yhsClw5G3ES7i2RbW55MeLSUUZwJSUWj3G2tSAFxjKwrmIvgGCfXDaFM
wWqJsCJl2vMVKgj+zavGuw5Jr6FtXtvzOyE3rl5Yk4NURpq+ath6DZys8tZIrCod
aOY=
-----END CERTIFICATE-----
