Certificate:
    Data:
        Version: 3 (0x2)
        Serial Number:
            fa:a4:f2:26:b8:3f:27:00:b9:c9:03:9c:db:37:9a:0f
        Signature Algorithm: sha256WithRSAEncryption
        Issuer: CN=SD-WAN Testbed CA
        Validity
            Not Before: Mar  6 07:54:09 2026 GMT
            Not After : Jun  8 07:54:09 2028 GMT
        Subject: CN=app-server
        Subject Public Key Info:
            Public Key Algorithm: rsaEncryption
                Public-Key: (2048 bit)
                Modulus:
                    00:d0:7c:8a:73:0a:9a:fb:cb:c2:8d:3f:43:ab:c4:
                    54:bd:ca:61:dd:56:08:4f:9e:62:30:18:46:07:7b:
                    4f:fe:59:34:ff:e6:06:83:39:9c:bc:e4:e2:dd:ea:
                    99:7c:6c:c5:65:ed:95:97:74:8f:ef:46:d5:f3:ad:
                    fa:88:f6:52:28:25:5e:f4:ea:65:38:c7:2f:d4:e9:
                    9c:43:6a:a9:ce:07:57:e4:35:51:fc:e6:0a:1f:2f:
                    fb:1e:bc:92:3e:19:f9:ef:35:f2:e2:22:7b:66:b4:
                    8a:ef:24:b0:92:e7:2d:79:37:29:d8:72:10:a5:a8:
                    ee:84:b6:f8:0d:fb:f9:64:4d:21:24:0c:39:fa:aa:
                    5b:a8:05:8e:fc:93:47:c6:73:6c:ee:0e:f3:f4:3f:
                    8d:da:e2:5d:a1:38:e5:51:cc:48:b9:86:c9:83:85:
                    c2:23:c4:9e:91:03:6f:73:5c:ab:78:0e:00:78:5a:
                    22:97:8b:54:30:54:04:11:f8:12:52:d2:28:b2:7b:
                    96:12:79:9c:29:0c:d9:18:ee:46:14:54:80:85:ac:
                    be:be:d7:6d:d5:83:3d:67:29:47:d6:e4:52:62:ad:
                    b5:9d:4a:d7:25:d7:f9:f3:ff:6f:e6:cc:e8:05:c5:
                    52:c7:32:f4:72:7b:4f:d8:64:0c:62:73:e5:ff:9b:
                    38:35
                Exponent: 65537 (0x10001)
        X509v3 extensions:
            X509v3 Basic Constraints: 
                CA:FALSE
            X509v3 Subject Key Identifier: 
                F4:E1:2C:76:5A:97:5D:B0:B0:BF:8B:3A:8A:B4:4A:43:95:2E:99:F4
            X509v3 Authority Key Identifier: 
                keyid:78:0A:16:8D:C1:F1:C7:CC:2B:2C:39:34:D5:51:47:B1:E8:83:D9:5D
                DirName:/CN=SD-WAN Testbed CA
                serial:04:A2:44:06:69:0D:54:68:DD:28:A4:55:52:58:78:09:E7:B4:7C:69
            X509v3 Extended Key Usage: 
                TLS Web Server Authentication
            X509v3 Key Usage: 
                Digital Signature, Key Encipherment
            X509v3 Subject Alternative Name: 
                IP Address:172.16.0.10, DNS:app-server
    Signature Algorithm: sha256WithRSAEncryption
    Signature Value:
        17:f9:9c:f9:01:a4:52:86:0b:55:61:d5:55:38:5a:53:5d:aa:
        29:25:e8:b9:cd:52:fb:f2:e3:e5:2a:f1:c2:fa:ca:cf:5b:ab:
        5f:08:08:c0:af:99:50:6a:a4:0d:60:3f:60:5f:c8:0c:22:73:
        03:1f:34:46:75:21:9e:dc:8b:7e:b7:e8:91:ec:02:30:0f:62:
        3a:54:62:9b:6e:2b:8c:0e:25:7c:5f:84:d6:3f:63:13:3d:be:
        4b:87:c7:e6:87:8b:89:66:47:2a:9d:68:d0:55:68:ad:dc:0f:
        d5:08:3d:c3:5f:75:61:f0:32:f3:fd:bb:e9:a6:b1:65:3a:f0:
        c5:a3:21:39:3f:67:57:21:d1:97:24:51:64:6a:e0:11:62:d1:
        a2:36:7c:9d:d6:7a:5c:b7:92:ef:43:77:f5:b2:ea:71:cf:22:
        ff:b4:26:0c:24:5b:d0:b2:69:b3:94:08:9e:79:46:97:75:59:
        23:70:e6:29:21:06:1c:87:33:a9:c8:80:c7:15:62:e8:66:1f:
        8e:2c:98:fd:05:2f:d2:40:39:58:34:ec:aa:5e:ed:db:76:2d:
        b9:43:cd:72:b9:a2:7f:4e:a9:00:8c:21:2d:87:d5:11:20:a2:
        56:0b:1d:f1:4d:f5:21:04:d1:48:0a:67:3f:ac:73:0a:9f:2a:
        ad:34:5b:82
-----BEGIN CERTIFICATE-----
MIIDgjCCAmqgAwIBAgIRAPqk8ia4PycAuckDnNs3mg8wDQYJKoZIhvcNAQELBQAw
HDEaMBgGA1UEAwwRU0QtV0FOIFRlc3RiZWQgQ0EwHhcNMjYwMzA2MDc1NDA5WhcN
MjgwNjA4MDc1NDA5WjAVMRMwEQYDVQQDDAphcHAtc2VydmVyMIIBIjANBgkqhkiG
9w0BAQEFAAOCAQ8AMIIBCgKCAQEA0HyKcwqa+8vCjT9Dq8RUvcph3VYIT55iMBhG
B3tP/lk0/+YGgzmcvOTi3eqZfGzFZe2Vl3SP70bV8636iPZSKCVe9OplOMcv1Omc
Q2qpzgdX5DVR/OYKHy/7HrySPhn57zXy4iJ7ZrSK7ySwkucteTcp2HIQpajuhLb4
Dfv5ZE0hJAw5+qpbqAWO/JNHxnNs7g7z9D+N2uJdoTjlUcxIuYbJg4XCI8SekQNv
c1yreA4AeFoil4tUMFQEEfgSUtIosnuWEnmcKQzZGO5GFFSAhay+vtdt1YM9ZylH
1uRSYq21nUrXJdf58/9v5szoBcVSxzL0cntP2GQMYnPl/5s4NQIDAQABo4HFMIHC
MAkGA1UdEwQCMAAwHQYDVR0OBBYEFPThLHZal12wsL+LOoq0SkOVLpn0MFcGA1Ud
IwRQME6AFHgKFo3B8cfMKyw5NNVRR7Hog9ldoSCkHjAcMRowGAYDVQQDDBFTRC1X
QU4gVGVzdGJlZCBDQYIUBKJEBmkNVGjdKKRVUlh4Cee0fGkwEwYDVR0lBAwwCgYI
KwYBBQUHAwEwCwYDVR0PBAQDAgWgMBsGA1UdEQQUMBKHBKwQAAqCCmFwcC1zZXJ2
ZXIwDQYJKoZIhvcNAQELBQADggEBABf5nPkBpFKGC1Vh1VU4WlNdqikl6LnNUvvy
4+Uq8cL6ys9bq18ICMCvmVBqpA1gP2BfyAwicwMfNEZ1IZ7ci3636JHsAjAPYjpU
YptuK4wOJXxfhNY/YxM9vkuHx+aHi4lmRyqdaNBVaK3cD9UIPcNfdWHwMvP9u+mm
sWU68MWjITk/Z1ch0ZckUWRq4BFi0aI2fJ3Wely3ku9Dd/Wy6nHPIv+0JgwkW9Cy
abOUCJ55Rpd1WSNw5ikhBhyHM6nIgMcVYuhmH44smP0FL9JAOVg07Kpe7dt2LblD
zXK5on9OqQCMIS2H1REgolYLHfFN9SEE0UgKZz+scwqfKq00W4I=
-----END CERTIFICATE-----
